target datalayout = "e-m:e-p270:32:32-p271:32:32-p272:64:64-i64:64-i128:128-f80:128-n8:16:32:64-S128"
target triple = "x86_64-pc-linux-gnu"

%struct.CONF_VALUE = type { ptr, ptr, ptr }

@.str = private unnamed_addr constant [34 x i8] c"../openssl/crypto/provider_conf.c\00", align 1
@__func__.provider_conf_params_internal = private unnamed_addr constant [30 x i8] c"provider_conf_params_internal\00", align 1
@.str.22 = private unnamed_addr constant [2 x i8] c".\00", align 1

; Function Attrs: inlinehint nounwind uwtable
define internal ptr @ossl_check_const_CONF_VALUE_sk_type(ptr noundef %0) #3 {
  %2 = alloca ptr, align 8
  store ptr %0, ptr %2, align 8, !tbaa !18
  %3 = load ptr, ptr %2, align 8, !tbaa !18
  ret ptr %3
}

; Function Attrs: inlinehint nounwind uwtable
define internal ptr @ossl_check_OPENSSL_CSTRING_type(ptr noundef %0) #3 {
  %2 = alloca ptr, align 8
  store ptr %0, ptr %2, align 8, !tbaa !28
  %3 = load ptr, ptr %2, align 8, !tbaa !28
  ret ptr %3
}

; Function Attrs: inlinehint nounwind uwtable
define internal ptr @ossl_check_OPENSSL_CSTRING_sk_type(ptr noundef %0) #3 {
  %2 = alloca ptr, align 8
  store ptr %0, ptr %2, align 8, !tbaa !39
  %3 = load ptr, ptr %2, align 8, !tbaa !39
  ret ptr %3
}

; Function Attrs: inlinehint nounwind uwtable
define internal ptr @ossl_check_const_OPENSSL_CSTRING_sk_type(ptr noundef %0) #3 {
  %2 = alloca ptr, align 8
  store ptr %0, ptr %2, align 8, !tbaa !39
  %3 = load ptr, ptr %2, align 8, !tbaa !39
  ret ptr %3
}

; Function Attrs: nounwind uwtable
define internal i32 @provider_conf_params_internal(ptr noundef %0, ptr noundef %1, ptr noundef %2, ptr noundef %3, ptr noundef %4, ptr noundef %5) #0 {
  %7 = alloca i32, align 4
  %8 = alloca ptr, align 8
  %9 = alloca ptr, align 8
  %10 = alloca ptr, align 8
  %11 = alloca ptr, align 8
  %12 = alloca ptr, align 8
  %13 = alloca ptr, align 8
  %14 = alloca ptr, align 8
  %15 = alloca i32, align 4
  %16 = alloca i32, align 4
  %17 = alloca i32, align 4
  %18 = alloca [512 x i8], align 16
  %19 = alloca i64, align 8
  %20 = alloca i32, align 4
  %21 = alloca ptr, align 8
  store ptr %0, ptr %8, align 8, !tbaa !37
  store ptr %1, ptr %9, align 8, !tbaa !8
  store ptr %2, ptr %10, align 8, !tbaa !28
  store ptr %3, ptr %11, align 8, !tbaa !28
  store ptr %4, ptr %12, align 8, !tbaa !16
  store ptr %5, ptr %13, align 8, !tbaa !39
  call void @llvm.lifetime.start.p0(i64 8, ptr %14) #6
  call void @llvm.lifetime.start.p0(i64 4, ptr %15) #6
  store i32 1, ptr %15, align 4, !tbaa !20
  call void @llvm.lifetime.start.p0(i64 4, ptr %16) #6
  store i32 0, ptr %16, align 4, !tbaa !20
  %22 = load ptr, ptr %12, align 8, !tbaa !16
  %23 = load ptr, ptr %11, align 8, !tbaa !28
  %24 = call ptr @NCONF_get_section(ptr noundef %22, ptr noundef %23)
  store ptr %24, ptr %14, align 8, !tbaa !18
  %25 = load ptr, ptr %14, align 8, !tbaa !18
  %26 = icmp ne ptr %25, null
  br i1 %26, label %27, label %126

27:                                               ; preds = %6
  call void @llvm.lifetime.start.p0(i64 4, ptr %17) #6
  call void @llvm.lifetime.start.p0(i64 512, ptr %18) #6
  call void @llvm.lifetime.start.p0(i64 8, ptr %19) #6
  store i64 0, ptr %19, align 8, !tbaa !42
  store i32 0, ptr %17, align 4, !tbaa !20
  br label %28

28:                                               ; preds = %43, %27
  %29 = load i32, ptr %17, align 4, !tbaa !20
  %30 = load ptr, ptr %13, align 8, !tbaa !39
  %31 = call ptr @ossl_check_const_OPENSSL_CSTRING_sk_type(ptr noundef %30)
  %32 = call i32 @OPENSSL_sk_num(ptr noundef %31)
  %33 = icmp slt i32 %29, %32
  br i1 %33, label %34, label %46

34:                                               ; preds = %28
  %35 = load ptr, ptr %13, align 8, !tbaa !39
  %36 = call ptr @ossl_check_const_OPENSSL_CSTRING_sk_type(ptr noundef %35)
  %37 = load i32, ptr %17, align 4, !tbaa !20
  %38 = call ptr @OPENSSL_sk_value(ptr noundef %36, i32 noundef %37)
  %39 = load ptr, ptr %11, align 8, !tbaa !28
  %40 = icmp eq ptr %38, %39
  br i1 %40, label %41, label %42

41:                                               ; preds = %34
  call void @ERR_new()
  call void @ERR_set_debug(ptr noundef @.str, i32 noundef 100, ptr noundef @__func__.provider_conf_params_internal)
  call void (i32, i32, ptr, ...) @ERR_set_error(i32 noundef 14, i32 noundef 126, ptr noundef null)
  store i32 -1, ptr %7, align 4
  store i32 1, ptr %20, align 4
  br label %123

42:                                               ; preds = %34
  br label %43

43:                                               ; preds = %42
  %44 = load i32, ptr %17, align 4, !tbaa !20
  %45 = add nsw i32 %44, 1
  store i32 %45, ptr %17, align 4, !tbaa !20
  br label %28, !llvm.loop !44

46:                                               ; preds = %28
  %47 = load ptr, ptr %13, align 8, !tbaa !39
  %48 = call ptr @ossl_check_OPENSSL_CSTRING_sk_type(ptr noundef %47)
  %49 = load ptr, ptr %11, align 8, !tbaa !28
  %50 = call ptr @ossl_check_OPENSSL_CSTRING_type(ptr noundef %49)
  %51 = call i32 @OPENSSL_sk_push(ptr noundef %48, ptr noundef %50)
  %52 = icmp ne i32 %51, 0
  br i1 %52, label %54, label %53

53:                                               ; preds = %46
  store i32 -1, ptr %7, align 4
  store i32 1, ptr %20, align 4
  br label %123

54:                                               ; preds = %46
  %55 = load ptr, ptr %10, align 8, !tbaa !28
  %56 = icmp ne ptr %55, null
  br i1 %56, label %57, label %65

57:                                               ; preds = %54
  %58 = getelementptr inbounds [512 x i8], ptr %18, i64 0, i64 0
  %59 = load ptr, ptr %10, align 8, !tbaa !28
  %60 = call i64 @OPENSSL_strlcpy(ptr noundef %58, ptr noundef %59, i64 noundef 512)
  %61 = getelementptr inbounds [512 x i8], ptr %18, i64 0, i64 0
  %62 = call i64 @OPENSSL_strlcat(ptr noundef %61, ptr noundef @.str.22, i64 noundef 512)
  %63 = getelementptr inbounds [512 x i8], ptr %18, i64 0, i64 0
  %64 = call i64 @strlen(ptr noundef %63) #7
  store i64 %64, ptr %19, align 8, !tbaa !42
  br label %65

65:                                               ; preds = %57, %54
  store i32 0, ptr %17, align 4, !tbaa !20
  br label %66

66:                                               ; preds = %116, %65
  %67 = load i32, ptr %17, align 4, !tbaa !20
  %68 = load ptr, ptr %14, align 8, !tbaa !18
  %69 = call ptr @ossl_check_const_CONF_VALUE_sk_type(ptr noundef %68)
  %70 = call i32 @OPENSSL_sk_num(ptr noundef %69)
  %71 = icmp slt i32 %67, %70
  br i1 %71, label %72, label %119

72:                                               ; preds = %66
  call void @llvm.lifetime.start.p0(i64 8, ptr %21) #6
  %73 = load ptr, ptr %14, align 8, !tbaa !18
  %74 = call ptr @ossl_check_const_CONF_VALUE_sk_type(ptr noundef %73)
  %75 = load i32, ptr %17, align 4, !tbaa !20
  %76 = call ptr @OPENSSL_sk_value(ptr noundef %74, i32 noundef %75)
  store ptr %76, ptr %21, align 8, !tbaa !8
  %77 = load i64, ptr %19, align 8, !tbaa !42
  %78 = load ptr, ptr %21, align 8, !tbaa !8
  %79 = getelementptr inbounds nuw %struct.CONF_VALUE, ptr %78, i32 0, i32 1
  %80 = load ptr, ptr %79, align 8, !tbaa !22
  %81 = call i64 @strlen(ptr noundef %80) #7
  %82 = add i64 %77, %81
  %83 = icmp uge i64 %82, 512
  br i1 %83, label %84, label %88

84:                                               ; preds = %72
  %85 = load ptr, ptr %13, align 8, !tbaa !39
  %86 = call ptr @ossl_check_OPENSSL_CSTRING_sk_type(ptr noundef %85)
  %87 = call ptr @OPENSSL_sk_pop(ptr noundef %86)
  store i32 -1, ptr %7, align 4
  store i32 1, ptr %20, align 4
  br label %113

88:                                               ; preds = %72
  %89 = load i64, ptr %19, align 8, !tbaa !42
  %90 = getelementptr inbounds nuw [512 x i8], ptr %18, i64 0, i64 %89
  store i8 0, ptr %90, align 1, !tbaa !45
  %91 = getelementptr inbounds [512 x i8], ptr %18, i64 0, i64 0
  %92 = load ptr, ptr %21, align 8, !tbaa !8
  %93 = getelementptr inbounds nuw %struct.CONF_VALUE, ptr %92, i32 0, i32 1
  %94 = load ptr, ptr %93, align 8, !tbaa !22
  %95 = call i64 @OPENSSL_strlcat(ptr noundef %91, ptr noundef %94, i64 noundef 512)
  %96 = load ptr, ptr %8, align 8, !tbaa !37
  %97 = load ptr, ptr %9, align 8, !tbaa !8
  %98 = getelementptr inbounds [512 x i8], ptr %18, i64 0, i64 0
  %99 = load ptr, ptr %21, align 8, !tbaa !8
  %100 = getelementptr inbounds nuw %struct.CONF_VALUE, ptr %99, i32 0, i32 2
  %101 = load ptr, ptr %100, align 8, !tbaa !25
  %102 = load ptr, ptr %12, align 8, !tbaa !16
  %103 = load ptr, ptr %13, align 8, !tbaa !39
  %104 = call i32 @provider_conf_params_internal(ptr noundef %96, ptr noundef %97, ptr noundef %98, ptr noundef %101, ptr noundef %102, ptr noundef %103)
  store i32 %104, ptr %16, align 4, !tbaa !20
  %105 = load i32, ptr %16, align 4, !tbaa !20
  %106 = icmp slt i32 %105, 0
  br i1 %106, label %107, label %112

107:                                              ; preds = %88
  %108 = load ptr, ptr %13, align 8, !tbaa !39
  %109 = call ptr @ossl_check_OPENSSL_CSTRING_sk_type(ptr noundef %108)
  %110 = call ptr @OPENSSL_sk_pop(ptr noundef %109)
  %111 = load i32, ptr %16, align 4, !tbaa !20
  store i32 %111, ptr %7, align 4
  store i32 1, ptr %20, align 4
  br label %113

112:                                              ; preds = %88
  store i32 0, ptr %20, align 4
  br label %113

113:                                              ; preds = %112, %107, %84
  call void @llvm.lifetime.end.p0(i64 8, ptr %21) #6
  %114 = load i32, ptr %20, align 4
  switch i32 %114, label %123 [
    i32 0, label %115
  ]

115:                                              ; preds = %113
  br label %116

116:                                              ; preds = %115
  %117 = load i32, ptr %17, align 4, !tbaa !20
  %118 = add nsw i32 %117, 1
  store i32 %118, ptr %17, align 4, !tbaa !20
  br label %66, !llvm.loop !46

119:                                              ; preds = %66
  %120 = load ptr, ptr %13, align 8, !tbaa !39
  %121 = call ptr @ossl_check_OPENSSL_CSTRING_sk_type(ptr noundef %120)
  %122 = call ptr @OPENSSL_sk_pop(ptr noundef %121)
  store i32 0, ptr %20, align 4
  br label %123

123:                                              ; preds = %119, %113, %53, %41
  call void @llvm.lifetime.end.p0(i64 8, ptr %19) #6
  call void @llvm.lifetime.end.p0(i64 512, ptr %18) #6
  call void @llvm.lifetime.end.p0(i64 4, ptr %17) #6
  %124 = load i32, ptr %20, align 4
  switch i32 %124, label %142 [
    i32 0, label %125
  ]

125:                                              ; preds = %123
  br label %140

126:                                              ; preds = %6
  %127 = load ptr, ptr %8, align 8, !tbaa !37
  %128 = icmp ne ptr %127, null
  br i1 %128, label %129, label %134

129:                                              ; preds = %126
  %130 = load ptr, ptr %8, align 8, !tbaa !37
  %131 = load ptr, ptr %10, align 8, !tbaa !28
  %132 = load ptr, ptr %11, align 8, !tbaa !28
  %133 = call i32 @OSSL_PROVIDER_add_conf_parameter(ptr noundef %130, ptr noundef %131, ptr noundef %132)
  store i32 %133, ptr %15, align 4, !tbaa !20
  br label %139

134:                                              ; preds = %126
  %135 = load ptr, ptr %9, align 8, !tbaa !8
  %136 = load ptr, ptr %10, align 8, !tbaa !28
  %137 = load ptr, ptr %11, align 8, !tbaa !28
  %138 = call i32 @ossl_provider_info_add_parameter(ptr noundef %135, ptr noundef %136, ptr noundef %137)
  store i32 %138, ptr %15, align 4, !tbaa !20
  br label %139

139:                                              ; preds = %134, %129
  br label %140

140:                                              ; preds = %139, %125
  %141 = load i32, ptr %15, align 4, !tbaa !20
  store i32 %141, ptr %7, align 4
  store i32 1, ptr %20, align 4
  br label %142

142:                                              ; preds = %140, %123
  call void @llvm.lifetime.end.p0(i64 4, ptr %16) #6
  call void @llvm.lifetime.end.p0(i64 4, ptr %15) #6
  call void @llvm.lifetime.end.p0(i64 8, ptr %14) #6
  %143 = load i32, ptr %7, align 4
  ret i32 %143
}