; Function Attrs: nounwind uwtable
define internal fastcc i32 @provider_conf_params_internal(ptr noundef %0, ptr noundef %1, ptr noundef %2, ptr noundef %3, ptr noundef %4, ptr noundef nonnull %5) unnamed_addr #0 {
  %7 = alloca [512 x i8], align 16
  %8 = tail call ptr @NCONF_get_section(ptr noundef %4, ptr noundef %3) #5
  %.not = icmp eq ptr %8, null
  br i1 %.not, label %52, label %9

9:                                                ; preds = %6
  call void @llvm.lifetime.start.p0(i64 512, ptr nonnull %7) #5
  %10 = tail call i32 @OPENSSL_sk_num(ptr noundef nonnull %5) #5
  %11 = icmp sgt i32 %10, 0
  br i1 %11, label %.lr.ph, label %._crit_edge

12:                                               ; preds = %.lr.ph
  %13 = add nuw nsw i32 %.04662, 1
  %14 = tail call i32 @OPENSSL_sk_num(ptr noundef nonnull %5) #5
  %15 = icmp slt i32 %13, %14
  br i1 %15, label %.lr.ph, label %._crit_edge, !llvm.loop !26

.lr.ph:                                           ; preds = %9, %12
  %.04662 = phi i32 [ %13, %12 ], [ 0, %9 ]
  %16 = tail call ptr @OPENSSL_sk_value(ptr noundef nonnull %5, i32 noundef %.04662) #5
  %17 = icmp eq ptr %16, %3
  br i1 %17, label %18, label %12

18:                                               ; preds = %.lr.ph
  tail call void @ERR_new() #5
  tail call void @ERR_set_debug(ptr noundef nonnull @.str, i32 noundef 100, ptr noundef nonnull @__func__.provider_conf_params_internal) #5
  tail call void (i32, i32, ptr, ...) @ERR_set_error(i32 noundef 14, i32 noundef 126, ptr noundef null) #5
  br label %.thread59

._crit_edge:                                      ; preds = %12, %9
  %19 = tail call i32 @OPENSSL_sk_push(ptr noundef nonnull %5, ptr noundef %3) #5
  %.not54 = icmp eq i32 %19, 0
  br i1 %.not54, label %.thread59, label %20

20:                                               ; preds = %._crit_edge
  %.not55 = icmp eq ptr %2, null
  br i1 %.not55, label %25, label %21

21:                                               ; preds = %20
  %22 = call i64 @OPENSSL_strlcpy(ptr noundef nonnull %7, ptr noundef nonnull %2, i64 noundef 512) #5
  %23 = call i64 @OPENSSL_strlcat(ptr noundef nonnull %7, ptr noundef nonnull @.str.22, i64 noundef 512) #5
  %24 = call i64 @strlen(ptr noundef nonnull dereferenceable(1) %7) #6
  br label %25

25:                                               ; preds = %21, %20
  %.045 = phi i64 [ %24, %21 ], [ 0, %20 ]
  %26 = call i32 @OPENSSL_sk_num(ptr noundef nonnull %8) #5
  %27 = icmp sgt i32 %26, 0
  br i1 %27, label %.lr.ph65, label %._crit_edge66

.lr.ph65:                                         ; preds = %25
  %28 = getelementptr inbounds nuw [512 x i8], ptr %7, i64 0, i64 %.045
  br label %33

29:                                               ; preds = %42
  %30 = add nuw nsw i32 %.14763, 1
  %31 = call i32 @OPENSSL_sk_num(ptr noundef nonnull %8) #5
  %32 = icmp slt i32 %30, %31
  br i1 %32, label %33, label %._crit_edge66, !llvm.loop !27

33:                                               ; preds = %.lr.ph65, %29
  %.14763 = phi i32 [ 0, %.lr.ph65 ], [ %30, %29 ]
  %34 = call ptr @OPENSSL_sk_value(ptr noundef nonnull %8, i32 noundef %.14763) #5
  %35 = getelementptr inbounds nuw i8, ptr %34, i64 8
  %36 = load ptr, ptr %35, align 8, !tbaa !12
  %37 = call i64 @strlen(ptr noundef nonnull dereferenceable(1) %36) #6
  %38 = add i64 %37, %.045
  %39 = icmp ugt i64 %38, 511
  br i1 %39, label %40, label %42

40:                                               ; preds = %33
  %41 = call ptr @OPENSSL_sk_pop(ptr noundef nonnull %5) #5
  br label %.thread59

42:                                               ; preds = %33
  store i8 0, ptr %28, align 1, !tbaa !28
  %43 = load ptr, ptr %35, align 8, !tbaa !12
  %44 = call i64 @OPENSSL_strlcat(ptr noundef nonnull %7, ptr noundef %43, i64 noundef 512) #5
  %45 = getelementptr inbounds nuw i8, ptr %34, i64 16
  %46 = load ptr, ptr %45, align 8, !tbaa !15
  %47 = call fastcc i32 @provider_conf_params_internal(ptr noundef %0, ptr noundef %1, ptr noundef nonnull %7, ptr noundef %46, ptr noundef %4, ptr noundef %5)
  %48 = icmp slt i32 %47, 0
  br i1 %48, label %49, label %29

49:                                               ; preds = %42
  %50 = call ptr @OPENSSL_sk_pop(ptr noundef nonnull %5) #5
  br label %.thread59

.thread59:                                        ; preds = %18, %._crit_edge, %40, %49
  %.0.ph = phi i32 [ -1, %._crit_edge ], [ -1, %18 ], [ %47, %49 ], [ -1, %40 ]
  call void @llvm.lifetime.end.p0(i64 512, ptr nonnull %7) #5
  br label %57

._crit_edge66:                                    ; preds = %29, %25
  %51 = call ptr @OPENSSL_sk_pop(ptr noundef nonnull %5) #5
  call void @llvm.lifetime.end.p0(i64 512, ptr nonnull %7) #5
  br label %57

52:                                               ; preds = %6
  %.not53 = icmp eq ptr %0, null
  br i1 %.not53, label %55, label %53

53:                                               ; preds = %52
  %54 = tail call i32 @OSSL_PROVIDER_add_conf_parameter(ptr noundef nonnull %0, ptr noundef %2, ptr noundef %3) #5
  br label %57

55:                                               ; preds = %52
  %56 = tail call i32 @ossl_provider_info_add_parameter(ptr noundef %1, ptr noundef %2, ptr noundef %3) #5
  br label %57

57:                                               ; preds = %._crit_edge66, %.thread59, %55, %53
  %.3 = phi i32 [ %54, %53 ], [ %56, %55 ], [ 1, %._crit_edge66 ], [ %.0.ph, %.thread59 ]
  ret i32 %.3
}